; Function Attrs: mustprogress nofree norecurse nosync nounwind willreturn memory(read, argmem: readwrite, inaccessiblemem: none) uwtable
define noundef nonnull align 8 dereferenceable(24) ptr @_ZNK5ezSAT17lookup_expressionEiRNS_4OpIdE(ptr noundef nonnull readonly align 8 captures(none) dereferenceable(284) %0, i32 noundef %1, ptr noundef nonnull writeonly align 4 captures(none) dereferenceable(4) initializes((0, 4)) %2) local_unnamed_addr #8 align 2 {
  %4 = getelementptr inbounds nuw i8, ptr %0, i64 136
  %5 = xor i32 %1, -1
  %6 = sext i32 %5 to i64
  %7 = load ptr, ptr %4, align 8, !tbaa !83
  %8 = getelementptr inbounds nuw %"struct.std::pair", ptr %7, i64 %6
  %9 = load i32, ptr %8, align 8, !tbaa !97
  store i32 %9, ptr %2, align 4, !tbaa !106
  %10 = getelementptr inbounds nuw i8, ptr %8, i64 8
  ret ptr %10
}